target datalayout = "e-m:e-p270:32:32-p271:32:32-p272:64:64-i64:64-i128:128-f80:128-n8:16:32:64-S128"
target triple = "x86_64-pc-linux-gnu"

%struct.ec_key_method_st = type { ptr, i32, ptr, ptr, ptr, ptr, ptr, ptr, ptr, ptr, ptr, ptr, ptr, ptr, ptr }

; Function Attrs: nounwind uwtable
define void @EC_KEY_METHOD_set_sign(ptr noundef %0, ptr noundef %1, ptr noundef %2, ptr noundef %3) #0 {
  %5 = alloca ptr, align 8
  %6 = alloca ptr, align 8
  %7 = alloca ptr, align 8
  %8 = alloca ptr, align 8
  store ptr %0, ptr %5, align 8, !tbaa !3
  store ptr %1, ptr %6, align 8, !tbaa !25
  store ptr %2, ptr %7, align 8, !tbaa !25
  store ptr %3, ptr %8, align 8, !tbaa !25
  %9 = load ptr, ptr %6, align 8, !tbaa !25
  %10 = load ptr, ptr %5, align 8, !tbaa !3
  %11 = getelementptr inbounds nuw %struct.ec_key_method_st, ptr %10, i32 0, i32 10
  store ptr %9, ptr %11, align 8, !tbaa !47
  %12 = load ptr, ptr %7, align 8, !tbaa !25
  %13 = load ptr, ptr %5, align 8, !tbaa !3
  %14 = getelementptr inbounds nuw %struct.ec_key_method_st, ptr %13, i32 0, i32 11
  store ptr %12, ptr %14, align 8, !tbaa !48
  %15 = load ptr, ptr %8, align 8, !tbaa !25
  %16 = load ptr, ptr %5, align 8, !tbaa !3
  %17 = getelementptr inbounds nuw %struct.ec_key_method_st, ptr %16, i32 0, i32 12
  store ptr %15, ptr %17, align 8, !tbaa !49
  ret void
}