; Function Attrs: mustprogress nofree norecurse nosync nounwind willreturn memory(argmem: write) uwtable
define void @EC_KEY_METHOD_set_sign(ptr noundef writeonly captures(none) initializes((80, 104)) %0, ptr noundef %1, ptr noundef %2, ptr noundef %3) local_unnamed_addr #8 {
  %5 = getelementptr inbounds nuw i8, ptr %0, i64 80
  store ptr %1, ptr %5, align 8, !tbaa !42
  %6 = getelementptr inbounds nuw i8, ptr %0, i64 88
  store ptr %2, ptr %6, align 8, !tbaa !43
  %7 = getelementptr inbounds nuw i8, ptr %0, i64 96
  store ptr %3, ptr %7, align 8, !tbaa !44
  ret void
}